target datalayout = "e-m:e-p270:32:32-p271:32:32-p272:64:64-i64:64-i128:128-f80:128-n8:16:32:64-S128"
target triple = "x86_64-unknown-linux-gnu"

%"class.std::basic_ostream" = type { ptr, %"class.std::basic_ios" }
%"class.std::basic_ios" = type { %"class.std::ios_base", ptr, i8, i8, ptr, ptr, ptr, ptr }
%"class.std::ios_base" = type { ptr, i64, i64, i32, i32, i32, ptr, %"struct.std::ios_base::_Words", [8 x %"struct.std::ios_base::_Words"], i32, ptr, %"class.std::locale" }
%"struct.std::ios_base::_Words" = type { ptr, i64 }
%"class.std::locale" = type { ptr }
%"class.std::__cxx11::basic_string" = type { %"struct.std::__cxx11::basic_string<char>::_Alloc_hider", i64, %union.anon }
%"struct.std::__cxx11::basic_string<char>::_Alloc_hider" = type { ptr }
%union.anon = type { i64, [8 x i8] }
%class.stream_ref = type <{ %"class.std::__cxx11::basic_string", ptr, %"class.std::__cxx11::basic_string", ptr, i8, [7 x i8] }>
%"class.std::allocator.62" = type { i8 }
%class.cmd_exception = type { %class.default_exception, i32, i32 }
%class.default_exception = type { %class.z3_exception, %"class.std::__cxx11::basic_string" }
%class.z3_exception = type { ptr }

@.str.6 = private unnamed_addr constant [20 x i8] c"invalid stream name\00", align 1
@_ZTI13cmd_exception = linkonce_odr hidden constant { ptr, ptr, ptr } { ptr getelementptr inbounds (ptr, ptr @_ZTVN10__cxxabiv120__si_class_type_infoE, i64 2), ptr @_ZTS13cmd_exception, ptr @_ZTI17default_exception }, comdat, align 8
@.str.7 = private unnamed_addr constant [7 x i8] c"stdout\00", align 1
@_ZSt4cout = external global %"class.std::basic_ostream", align 8
@.str.8 = private unnamed_addr constant [7 x i8] c"stderr\00", align 1
@_ZSt4cerr = external global %"class.std::basic_ostream", align 8
@.str.9 = private unnamed_addr constant [30 x i8] c"failed to set output stream '\00", align 1
@.str.10 = private unnamed_addr constant [2 x i8] c"'\00", align 1
@_ZTV17default_exception = external unnamed_addr constant { [6 x ptr] }, align 8
@_ZTV12z3_exception = external unnamed_addr constant { [6 x ptr] }, align 8
@_ZTV13cmd_exception = linkonce_odr hidden unnamed_addr constant { [6 x ptr] } { [6 x ptr] [ptr null, ptr @_ZTI13cmd_exception, ptr @_ZN13cmd_exceptionD2Ev, ptr @_ZN13cmd_exceptionD0Ev, ptr @_ZNK17default_exception3msgEv, ptr @_ZNK12z3_exception10error_codeEv] }, comdat, align 8

; Function Attrs: mustprogress nounwind uwtable
define linkonce_odr hidden void @_ZN12z3_exceptionC2Ev(ptr noundef nonnull align 8 dereferenceable(8) %this) unnamed_addr #5 comdat align 2 {
entry:
  %this.addr = alloca ptr, align 8
  store ptr %this, ptr %this.addr, align 8
  %this1 = load ptr, ptr %this.addr, align 8
  store ptr getelementptr inbounds ({ [6 x ptr] }, ptr @_ZTV12z3_exception, i32 0, i32 0, i32 2), ptr %this1, align 8
  ret void
}

; Function Attrs: mustprogress nounwind uwtable
define linkonce_odr hidden void @_ZN17default_exceptionC2EONSt7__cxx1112basic_stringIcSt11char_traitsIcESaIcEEE(ptr noundef nonnull align 8 dereferenceable(40) %this, ptr noundef nonnull align 8 dereferenceable(32) %msg) unnamed_addr #5 comdat align 2 {
entry:
  %this.addr = alloca ptr, align 8
  %msg.addr = alloca ptr, align 8
  store ptr %this, ptr %this.addr, align 8
  store ptr %msg, ptr %msg.addr, align 8
  %this1 = load ptr, ptr %this.addr, align 8
  call void @_ZN12z3_exceptionC2Ev(ptr noundef nonnull align 8 dereferenceable(8) %this1) #3
  store ptr getelementptr inbounds ({ [6 x ptr] }, ptr @_ZTV17default_exception, i32 0, i32 0, i32 2), ptr %this1, align 8
  %m_msg = getelementptr inbounds %class.default_exception, ptr %this1, i32 0, i32 1
  %0 = load ptr, ptr %msg.addr, align 8
  call void @_ZNSt7__cxx1112basic_stringIcSt11char_traitsIcESaIcEEC1EOS4_(ptr noundef nonnull align 8 dereferenceable(32) %m_msg, ptr noundef nonnull align 8 dereferenceable(32) %0) #3
  ret void
}

; Function Attrs: mustprogress nounwind uwtable
define linkonce_odr hidden void @_ZN13cmd_exceptionC2EONSt7__cxx1112basic_stringIcSt11char_traitsIcESaIcEEE(ptr noundef nonnull align 8 dereferenceable(48) %this, ptr noundef nonnull align 8 dereferenceable(32) %msg) unnamed_addr #5 comdat align 2 {
entry:
  %this.addr = alloca ptr, align 8
  %msg.addr = alloca ptr, align 8
  store ptr %this, ptr %this.addr, align 8
  store ptr %msg, ptr %msg.addr, align 8
  %this1 = load ptr, ptr %this.addr, align 8
  %0 = load ptr, ptr %msg.addr, align 8
  call void @_ZN17default_exceptionC2EONSt7__cxx1112basic_stringIcSt11char_traitsIcESaIcEEE(ptr noundef nonnull align 8 dereferenceable(40) %this1, ptr noundef nonnull align 8 dereferenceable(32) %0)
  store ptr getelementptr inbounds ({ [6 x ptr] }, ptr @_ZTV13cmd_exception, i32 0, i32 0, i32 2), ptr %this1, align 8
  %m_line = getelementptr inbounds %class.cmd_exception, ptr %this1, i32 0, i32 1
  store i32 -1, ptr %m_line, align 8
  %m_pos = getelementptr inbounds %class.cmd_exception, ptr %this1, i32 0, i32 2
  store i32 -1, ptr %m_pos, align 4
  ret void
}

; Function Attrs: mustprogress uwtable
define hidden void @_ZN10stream_ref3setEPKc(ptr noundef nonnull align 8 dereferenceable(81) %this, ptr noundef %name) #4 align 2 personality ptr @__gxx_personality_v0 {
entry:
  %this.addr = alloca ptr, align 8
  %name.addr = alloca ptr, align 8
  %exn.slot = alloca ptr, align 8
  %ehselector.slot = alloca i32, align 4
  %msg = alloca %"class.std::__cxx11::basic_string", align 8
  %ref.tmp = alloca %"class.std::allocator.62", align 1
  store ptr %this, ptr %this.addr, align 8
  store ptr %name, ptr %name.addr, align 8
  %this1 = load ptr, ptr %this.addr, align 8
  %0 = load ptr, ptr %name.addr, align 8
  %tobool = icmp ne ptr %0, null
  br i1 %tobool, label %if.end, label %if.then

if.then:                                          ; preds = %entry
  %exception = call ptr @__cxa_allocate_exception(i64 48) #3
  invoke void @_ZN13cmd_exceptionC2EPKc(ptr noundef nonnull align 8 dereferenceable(48) %exception, ptr noundef @.str.6)
          to label %invoke.cont unwind label %lpad

invoke.cont:                                      ; preds = %if.then
  call void @__cxa_throw(ptr %exception, ptr @_ZTI13cmd_exception, ptr @_ZN13cmd_exceptionD2Ev) #19
  unreachable

lpad:                                             ; preds = %if.then
  %1 = landingpad { ptr, i32 }
          cleanup
  %2 = extractvalue { ptr, i32 } %1, 0
  store ptr %2, ptr %exn.slot, align 8
  %3 = extractvalue { ptr, i32 } %1, 1
  store i32 %3, ptr %ehselector.slot, align 4
  call void @__cxa_free_exception(ptr %exception) #3
  br label %eh.resume

if.end:                                           ; preds = %entry
  call void @_ZN10stream_ref5resetEv(ptr noundef nonnull align 8 dereferenceable(81) %this1)
  %4 = load ptr, ptr %name.addr, align 8
  %call = call i32 @strcmp(ptr noundef %4, ptr noundef @.str.7) #20
  %cmp = icmp eq i32 %call, 0
  br i1 %cmp, label %if.then2, label %if.else

if.then2:                                         ; preds = %if.end
  %m_name = getelementptr inbounds %class.stream_ref, ptr %this1, i32 0, i32 2
  %call3 = call noundef nonnull align 8 dereferenceable(32) ptr @_ZNSt7__cxx1112basic_stringIcSt11char_traitsIcESaIcEEaSEPKc(ptr noundef nonnull align 8 dereferenceable(32) %m_name, ptr noundef @.str.7)
  %m_stream = getelementptr inbounds %class.stream_ref, ptr %this1, i32 0, i32 3
  store ptr @_ZSt4cout, ptr %m_stream, align 8
  br label %if.end36

if.else:                                          ; preds = %if.end
  %5 = load ptr, ptr %name.addr, align 8
  %call4 = call i32 @strcmp(ptr noundef %5, ptr noundef @.str.8) #20
  %cmp5 = icmp eq i32 %call4, 0
  br i1 %cmp5, label %if.then6, label %if.else10

if.then6:                                         ; preds = %if.else
  %m_name7 = getelementptr inbounds %class.stream_ref, ptr %this1, i32 0, i32 2
  %call8 = call noundef nonnull align 8 dereferenceable(32) ptr @_ZNSt7__cxx1112basic_stringIcSt11char_traitsIcESaIcEEaSEPKc(ptr noundef nonnull align 8 dereferenceable(32) %m_name7, ptr noundef @.str.8)
  %m_stream9 = getelementptr inbounds %class.stream_ref, ptr %this1, i32 0, i32 3
  store ptr @_ZSt4cerr, ptr %m_stream9, align 8
  br label %if.end35

if.else10:                                        ; preds = %if.else
  %call11 = call noalias noundef ptr @_ZN6memory8allocateEm(i64 noundef 512)
  %6 = load ptr, ptr %name.addr, align 8
  call void @_ZNSt14basic_ofstreamIcSt11char_traitsIcEEC1EPKcSt13_Ios_Openmode(ptr noundef nonnull align 8 dereferenceable(248) %call11, ptr noundef %6, i32 noundef 1)
  %m_stream12 = getelementptr inbounds %class.stream_ref, ptr %this1, i32 0, i32 3
  store ptr %call11, ptr %m_stream12, align 8
  %7 = load ptr, ptr %name.addr, align 8
  %m_name13 = getelementptr inbounds %class.stream_ref, ptr %this1, i32 0, i32 2
  %call14 = call noundef nonnull align 8 dereferenceable(32) ptr @_ZNSt7__cxx1112basic_stringIcSt11char_traitsIcESaIcEEaSEPKc(ptr noundef nonnull align 8 dereferenceable(32) %m_name13, ptr noundef %7)
  %m_owner = getelementptr inbounds %class.stream_ref, ptr %this1, i32 0, i32 4
  store i8 1, ptr %m_owner, align 8
  %m_stream15 = getelementptr inbounds %class.stream_ref, ptr %this1, i32 0, i32 3
  %8 = load ptr, ptr %m_stream15, align 8
  %vtable = load ptr, ptr %8, align 8
  %vbase.offset.ptr = getelementptr i8, ptr %vtable, i64 -24
  %vbase.offset = load i64, ptr %vbase.offset.ptr, align 8
  %add.ptr = getelementptr inbounds i8, ptr %8, i64 %vbase.offset
  %call16 = call noundef zeroext i1 @_ZNKSt9basic_iosIcSt11char_traitsIcEE3badEv(ptr noundef nonnull align 8 dereferenceable(264) %add.ptr)
  br i1 %call16, label %if.then23, label %lor.lhs.false

lor.lhs.false:                                    ; preds = %if.else10
  %m_stream17 = getelementptr inbounds %class.stream_ref, ptr %this1, i32 0, i32 3
  %9 = load ptr, ptr %m_stream17, align 8
  %vtable18 = load ptr, ptr %9, align 8
  %vbase.offset.ptr19 = getelementptr i8, ptr %vtable18, i64 -24
  %vbase.offset20 = load i64, ptr %vbase.offset.ptr19, align 8
  %add.ptr21 = getelementptr inbounds i8, ptr %9, i64 %vbase.offset20
  %call22 = call noundef zeroext i1 @_ZNKSt9basic_iosIcSt11char_traitsIcEE4failEv(ptr noundef nonnull align 8 dereferenceable(264) %add.ptr21)
  br i1 %call22, label %if.then23, label %if.end34

if.then23:                                        ; preds = %lor.lhs.false, %if.else10
  call void @_ZN10stream_ref5resetEv(ptr noundef nonnull align 8 dereferenceable(81) %this1)
  call void @_ZNSaIcEC1Ev(ptr noundef nonnull align 1 dereferenceable(1) %ref.tmp) #3
  invoke void @_ZNSt7__cxx1112basic_stringIcSt11char_traitsIcESaIcEEC2IS3_EEPKcRKS3_(ptr noundef nonnull align 8 dereferenceable(32) %msg, ptr noundef @.str.9, ptr noundef nonnull align 1 dereferenceable(1) %ref.tmp)
          to label %invoke.cont25 unwind label %lpad24

invoke.cont25:                                    ; preds = %if.then23
  call void @_ZNSaIcED1Ev(ptr noundef nonnull align 1 dereferenceable(1) %ref.tmp) #3
  %10 = load ptr, ptr %name.addr, align 8
  %call28 = invoke noundef nonnull align 8 dereferenceable(32) ptr @_ZNSt7__cxx1112basic_stringIcSt11char_traitsIcESaIcEEpLEPKc(ptr noundef nonnull align 8 dereferenceable(32) %msg, ptr noundef %10)
          to label %invoke.cont27 unwind label %lpad26

invoke.cont27:                                    ; preds = %invoke.cont25
  %call30 = invoke noundef nonnull align 8 dereferenceable(32) ptr @_ZNSt7__cxx1112basic_stringIcSt11char_traitsIcESaIcEEpLEPKc(ptr noundef nonnull align 8 dereferenceable(32) %msg, ptr noundef @.str.10)
          to label %invoke.cont29 unwind label %lpad26

invoke.cont29:                                    ; preds = %invoke.cont27
  %exception31 = call ptr @__cxa_allocate_exception(i64 48) #3
  invoke void @_ZN13cmd_exceptionC2EONSt7__cxx1112basic_stringIcSt11char_traitsIcESaIcEEE(ptr noundef nonnull align 8 dereferenceable(48) %exception31, ptr noundef nonnull align 8 dereferenceable(32) %msg)
          to label %invoke.cont33 unwind label %lpad32

invoke.cont33:                                    ; preds = %invoke.cont29
  invoke void @__cxa_throw(ptr %exception31, ptr @_ZTI13cmd_exception, ptr @_ZN13cmd_exceptionD2Ev) #19
          to label %unreachable unwind label %lpad26

lpad24:                                           ; preds = %if.then23
  %11 = landingpad { ptr, i32 }
          cleanup
  %12 = extractvalue { ptr, i32 } %11, 0
  store ptr %12, ptr %exn.slot, align 8
  %13 = extractvalue { ptr, i32 } %11, 1
  store i32 %13, ptr %ehselector.slot, align 4
  call void @_ZNSaIcED1Ev(ptr noundef nonnull align 1 dereferenceable(1) %ref.tmp) #3
  br label %eh.resume

lpad26:                                           ; preds = %invoke.cont33, %invoke.cont27, %invoke.cont25
  %14 = landingpad { ptr, i32 }
          cleanup
  %15 = extractvalue { ptr, i32 } %14, 0
  store ptr %15, ptr %exn.slot, align 8
  %16 = extractvalue { ptr, i32 } %14, 1
  store i32 %16, ptr %ehselector.slot, align 4
  br label %ehcleanup

lpad32:                                           ; preds = %invoke.cont29
  %17 = landingpad { ptr, i32 }
          cleanup
  %18 = extractvalue { ptr, i32 } %17, 0
  store ptr %18, ptr %exn.slot, align 8
  %19 = extractvalue { ptr, i32 } %17, 1
  store i32 %19, ptr %ehselector.slot, align 4
  call void @__cxa_free_exception(ptr %exception31) #3
  br label %ehcleanup

ehcleanup:                                        ; preds = %lpad32, %lpad26
  call void @_ZNSt7__cxx1112basic_stringIcSt11char_traitsIcESaIcEED1Ev(ptr noundef nonnull align 8 dereferenceable(32) %msg) #3
  br label %eh.resume

if.end34:                                         ; preds = %lor.lhs.false
  br label %if.end35

if.end35:                                         ; preds = %if.end34, %if.then6
  br label %if.end36

if.end36:                                         ; preds = %if.end35, %if.then2
  ret void

eh.resume:                                        ; preds = %ehcleanup, %lpad24, %lpad
  %exn = load ptr, ptr %exn.slot, align 8
  %sel = load i32, ptr %ehselector.slot, align 4
  %lpad.val = insertvalue { ptr, i32 } poison, ptr %exn, 0
  %lpad.val37 = insertvalue { ptr, i32 } %lpad.val, i32 %sel, 1
  resume { ptr, i32 } %lpad.val37

unreachable:                                      ; preds = %invoke.cont33
  unreachable
}