; Function Attrs: mustprogress uwtable
define hidden void @_ZN10stream_ref3setEPKc(ptr noundef nonnull align 8 dereferenceable(81) %this, ptr noundef %name) local_unnamed_addr #4 align 2 personality ptr @__gxx_personality_v0 {
entry:
  %msg = alloca %"class.std::__cxx11::basic_string", align 8
  %ref.tmp = alloca %"class.std::allocator.62", align 1
  %tobool.not = icmp eq ptr %name, null
  br i1 %tobool.not, label %if.then, label %if.end

if.then:                                          ; preds = %entry
  %exception = tail call ptr @__cxa_allocate_exception(i64 48) #25
  invoke void @_ZN13cmd_exceptionC2EPKc(ptr noundef nonnull align 8 dereferenceable(48) %exception, ptr noundef nonnull @.str.6)
          to label %invoke.cont unwind label %lpad

invoke.cont:                                      ; preds = %if.then
  tail call void @__cxa_throw(ptr nonnull %exception, ptr nonnull @_ZTI13cmd_exception, ptr nonnull @_ZN13cmd_exceptionD2Ev) #27
  unreachable

lpad:                                             ; preds = %if.then
  %0 = landingpad { ptr, i32 }
          cleanup
  tail call void @__cxa_free_exception(ptr %exception) #25
  br label %eh.resume

if.end:                                           ; preds = %entry
  %m_owner.i = getelementptr inbounds i8, ptr %this, i64 80
  %1 = load i8, ptr %m_owner.i, align 8
  %2 = and i8 %1, 1
  %tobool.not.i = icmp eq i8 %2, 0
  br i1 %tobool.not.i, label %_ZN10stream_ref5resetEv.exit, label %if.then.i

if.then.i:                                        ; preds = %if.end
  %m_stream.i = getelementptr inbounds i8, ptr %this, i64 72
  %3 = load ptr, ptr %m_stream.i, align 8
  %cmp.i.i = icmp eq ptr %3, null
  br i1 %cmp.i.i, label %_ZN10stream_ref5resetEv.exit, label %if.end.i.i

if.end.i.i:                                       ; preds = %if.then.i
  %vtable.i.i = load ptr, ptr %3, align 8
  %4 = load ptr, ptr %vtable.i.i, align 8
  tail call void %4(ptr noundef nonnull align 8 dereferenceable(8) %3) #25
  tail call void @_ZN6memory10deallocateEPv(ptr noundef nonnull %3)
  br label %_ZN10stream_ref5resetEv.exit

_ZN10stream_ref5resetEv.exit:                     ; preds = %if.end, %if.then.i, %if.end.i.i
  %m_name.i = getelementptr inbounds i8, ptr %this, i64 40
  %call.i = tail call noundef nonnull align 8 dereferenceable(32) ptr @_ZNSt7__cxx1112basic_stringIcSt11char_traitsIcESaIcEEaSERKS4_(ptr noundef nonnull align 8 dereferenceable(32) %m_name.i, ptr noundef nonnull align 8 dereferenceable(32) %this)
  %m_default.i = getelementptr inbounds i8, ptr %this, i64 32
  %5 = load ptr, ptr %m_default.i, align 8
  %m_stream2.i = getelementptr inbounds i8, ptr %this, i64 72
  store ptr %5, ptr %m_stream2.i, align 8
  store i8 0, ptr %m_owner.i, align 8
  %call = tail call i32 @strcmp(ptr noundef nonnull dereferenceable(1) %name, ptr noundef nonnull dereferenceable(7) @.str.7) #28
  %cmp = icmp eq i32 %call, 0
  br i1 %cmp, label %if.end36.sink.split, label %if.else

if.else:                                          ; preds = %_ZN10stream_ref5resetEv.exit
  %call4 = tail call i32 @strcmp(ptr noundef nonnull dereferenceable(1) %name, ptr noundef nonnull dereferenceable(7) @.str.8) #28
  %cmp5 = icmp eq i32 %call4, 0
  br i1 %cmp5, label %if.end36.sink.split, label %if.else10

if.else10:                                        ; preds = %if.else
  %call11 = tail call noalias noundef ptr @_ZN6memory8allocateEm(i64 noundef 512)
  tail call void @_ZNSt14basic_ofstreamIcSt11char_traitsIcEEC1EPKcSt13_Ios_Openmode(ptr noundef nonnull align 8 dereferenceable(248) %call11, ptr noundef nonnull %name, i32 noundef 1)
  store ptr %call11, ptr %m_stream2.i, align 8
  %call14 = tail call noundef nonnull align 8 dereferenceable(32) ptr @_ZNSt7__cxx1112basic_stringIcSt11char_traitsIcESaIcEEaSEPKc(ptr noundef nonnull align 8 dereferenceable(32) %m_name.i, ptr noundef nonnull %name)
  store i8 1, ptr %m_owner.i, align 8
  %6 = load ptr, ptr %m_stream2.i, align 8
  %vtable = load ptr, ptr %6, align 8
  %vbase.offset.ptr = getelementptr i8, ptr %vtable, i64 -24
  %vbase.offset = load i64, ptr %vbase.offset.ptr, align 8
  %add.ptr = getelementptr inbounds i8, ptr %6, i64 %vbase.offset
  %call16 = tail call noundef zeroext i1 @_ZNKSt9basic_iosIcSt11char_traitsIcEE3badEv(ptr noundef nonnull align 8 dereferenceable(264) %add.ptr)
  br i1 %call16, label %if.then23, label %lor.lhs.false

lor.lhs.false:                                    ; preds = %if.else10
  %7 = load ptr, ptr %m_stream2.i, align 8
  %vtable18 = load ptr, ptr %7, align 8
  %vbase.offset.ptr19 = getelementptr i8, ptr %vtable18, i64 -24
  %vbase.offset20 = load i64, ptr %vbase.offset.ptr19, align 8
  %add.ptr21 = getelementptr inbounds i8, ptr %7, i64 %vbase.offset20
  %call22 = tail call noundef zeroext i1 @_ZNKSt9basic_iosIcSt11char_traitsIcEE4failEv(ptr noundef nonnull align 8 dereferenceable(264) %add.ptr21)
  br i1 %call22, label %if.then23, label %if.end36

if.then23:                                        ; preds = %lor.lhs.false, %if.else10
  tail call void @_ZN10stream_ref5resetEv(ptr noundef nonnull align 8 dereferenceable(81) %this)
  call void @_ZNSaIcEC1Ev(ptr noundef nonnull align 1 dereferenceable(1) %ref.tmp) #25
  invoke void @_ZNSt7__cxx1112basic_stringIcSt11char_traitsIcESaIcEEC2IS3_EEPKcRKS3_(ptr noundef nonnull align 8 dereferenceable(32) %msg, ptr noundef nonnull @.str.9, ptr noundef nonnull align 1 dereferenceable(1) %ref.tmp)
          to label %invoke.cont25 unwind label %lpad24

invoke.cont25:                                    ; preds = %if.then23
  call void @_ZNSaIcED1Ev(ptr noundef nonnull align 1 dereferenceable(1) %ref.tmp) #25
  %call28 = invoke noundef nonnull align 8 dereferenceable(32) ptr @_ZNSt7__cxx1112basic_stringIcSt11char_traitsIcESaIcEEpLEPKc(ptr noundef nonnull align 8 dereferenceable(32) %msg, ptr noundef nonnull %name)
          to label %invoke.cont27 unwind label %lpad26

invoke.cont27:                                    ; preds = %invoke.cont25
  %call30 = invoke noundef nonnull align 8 dereferenceable(32) ptr @_ZNSt7__cxx1112basic_stringIcSt11char_traitsIcESaIcEEpLEPKc(ptr noundef nonnull align 8 dereferenceable(32) %msg, ptr noundef nonnull @.str.10)
          to label %invoke.cont29 unwind label %lpad26

invoke.cont29:                                    ; preds = %invoke.cont27
  %exception31 = call ptr @__cxa_allocate_exception(i64 48) #25
  store ptr getelementptr inbounds ({ [6 x ptr] }, ptr @_ZTV17default_exception, i64 0, i32 0, i64 2), ptr %exception31, align 8
  %m_msg.i.i = getelementptr inbounds i8, ptr %exception31, i64 8
  call void @_ZNSt7__cxx1112basic_stringIcSt11char_traitsIcESaIcEEC1EOS4_(ptr noundef nonnull align 8 dereferenceable(32) %m_msg.i.i, ptr noundef nonnull align 8 dereferenceable(32) %msg) #25
  store ptr getelementptr inbounds ({ [6 x ptr] }, ptr @_ZTV13cmd_exception, i64 0, i32 0, i64 2), ptr %exception31, align 8
  %m_line.i = getelementptr inbounds i8, ptr %exception31, i64 40
  store i32 -1, ptr %m_line.i, align 8
  %m_pos.i = getelementptr inbounds i8, ptr %exception31, i64 44
  store i32 -1, ptr %m_pos.i, align 4
  invoke void @__cxa_throw(ptr nonnull %exception31, ptr nonnull @_ZTI13cmd_exception, ptr nonnull @_ZN13cmd_exceptionD2Ev) #27
          to label %unreachable unwind label %lpad26

lpad24:                                           ; preds = %if.then23
  %8 = landingpad { ptr, i32 }
          cleanup
  call void @_ZNSaIcED1Ev(ptr noundef nonnull align 1 dereferenceable(1) %ref.tmp) #25
  br label %eh.resume

lpad26:                                           ; preds = %invoke.cont29, %invoke.cont27, %invoke.cont25
  %9 = landingpad { ptr, i32 }
          cleanup
  call void @_ZNSt7__cxx1112basic_stringIcSt11char_traitsIcESaIcEED1Ev(ptr noundef nonnull align 8 dereferenceable(32) %msg) #25
  br label %eh.resume

if.end36.sink.split:                              ; preds = %if.else, %_ZN10stream_ref5resetEv.exit
  %.str.8.sink = phi ptr [ @.str.7, %_ZN10stream_ref5resetEv.exit ], [ @.str.8, %if.else ]
  %_ZSt4cerr.sink = phi ptr [ @_ZSt4cout, %_ZN10stream_ref5resetEv.exit ], [ @_ZSt4cerr, %if.else ]
  %call8 = tail call noundef nonnull align 8 dereferenceable(32) ptr @_ZNSt7__cxx1112basic_stringIcSt11char_traitsIcESaIcEEaSEPKc(ptr noundef nonnull align 8 dereferenceable(32) %m_name.i, ptr noundef nonnull %.str.8.sink)
  store ptr %_ZSt4cerr.sink, ptr %m_stream2.i, align 8
  br label %if.end36

if.end36:                                         ; preds = %if.end36.sink.split, %lor.lhs.false
  ret void

eh.resume:                                        ; preds = %lpad26, %lpad24, %lpad
  %.pn = phi { ptr, i32 } [ %9, %lpad26 ], [ %8, %lpad24 ], [ %0, %lpad ]
  resume { ptr, i32 } %.pn

unreachable:                                      ; preds = %invoke.cont29
  unreachable
}